; Function Attrs: mustprogress nounwind uwtable
define hidden noundef i64 @_ZN15CgroupSubsystem21memory_limit_in_bytesEv(ptr noundef nonnull align 8 dereferenceable(8) %0) local_unnamed_addr #0 align 2 {
  %2 = load ptr, ptr %0, align 8
  %3 = getelementptr inbounds i8, ptr %2, i64 48
  %4 = load ptr, ptr %3, align 8
  %5 = tail call noundef ptr %4(ptr noundef nonnull align 8 dereferenceable(8) %0) #13
  %6 = getelementptr inbounds i8, ptr %5, i64 8
  %7 = load ptr, ptr %6, align 8
  %8 = tail call noundef i64 @_ZN2os15elapsed_counterEv() #13
  %9 = getelementptr inbounds i8, ptr %7, i64 8
  %10 = load volatile i64, ptr %9, align 8
  %11 = icmp sgt i64 %8, %10
  br i1 %11, label %14, label %12

12:                                               ; preds = %1
  %13 = load volatile i64, ptr %7, align 8
  br label %25

14:                                               ; preds = %1
  %15 = load i64, ptr @_ZN2os5Linux16_physical_memoryE, align 8
  %16 = load volatile ptr, ptr getelementptr inbounds (i8, ptr @_ZN16LogTagSetMappingILN6LogTag4typeE105ELS1_25ELS1_0ELS1_0ELS1_0ELS1_0EE7_tagsetE, i64 48), align 8
  %.not = icmp eq ptr %16, null
  br i1 %.not, label %18, label %17

17:                                               ; preds = %14
  tail call void (ptr, ...) @_ZN7LogImplILN6LogTag4typeE105ELS1_25ELS1_0ELS1_0ELS1_0ELS1_0EE5writeILN8LogLevel4typeE1EEEvPKcz(ptr noundef nonnull @.str.36, i64 noundef %15)
  br label %18

18:                                               ; preds = %14, %17
  %19 = load ptr, ptr %5, align 8
  %20 = load ptr, ptr %19, align 8
  %21 = load ptr, ptr %20, align 8
  %22 = tail call noundef i64 %21(ptr noundef nonnull align 8 dereferenceable(8) %19, i64 noundef %15) #13
  store volatile i64 %22, ptr %7, align 8
  %23 = tail call noundef i64 @_ZN2os15elapsed_counterEv() #13
  %24 = add nsw i64 %23, 20000000
  store volatile i64 %24, ptr %9, align 8
  br label %25

25:                                               ; preds = %18, %12
  %.0 = phi i64 [ %22, %18 ], [ %13, %12 ]
  ret i64 %.0
}